target datalayout = "e-m:e-p270:32:32-p271:32:32-p272:64:64-i64:64-i128:128-f80:128-n8:16:32:64-S128"
target triple = "x86_64-pc-linux-gnu"

%struct.slurm_conf_t = type { i64, ptr, i16, ptr, ptr, ptr, ptr, ptr, i16, ptr, ptr, ptr, ptr, ptr, ptr, ptr, i16, ptr, ptr, ptr, ptr, i16, ptr, ptr, ptr, i64, ptr, ptr, ptr, ptr, i16, ptr, ptr, i16, i32, ptr, i32, ptr, i32, i32, ptr, ptr, i64, i64, ptr, i16, i16, ptr, i32, i32, ptr, i32, ptr, i32, i16, i16, i16, ptr, i16, i16, ptr, ptr, i32, i16, i16, ptr, i32, i16, ptr, ptr, ptr, ptr, i16, ptr, ptr, ptr, ptr, i32, ptr, ptr, ptr, ptr, i16, i16, ptr, i32, i32, i32, i16, i16, ptr, ptr, i16, ptr, ptr, i32, i32, i32, i32, i32, i64, i32, i32, i16, ptr, ptr, i32, ptr, ptr, ptr, i16, i32, ptr, ptr, i16, ptr, ptr, i32, i16, ptr, ptr, ptr, ptr, i32, i32, i16, i16, i32, ptr, i16, ptr, i32, i32, i32, i32, i32, i32, ptr, i16, ptr, ptr, i32, i16, ptr, i32, i16, i16, ptr, ptr, ptr, i16, ptr, ptr, ptr, ptr, i16, i16, ptr, i16, ptr, i16, ptr, i16, ptr, i16, ptr, ptr, ptr, ptr, i16, ptr, ptr, ptr, i32, ptr, i32, ptr, ptr, i16, ptr, ptr, i32, i16, ptr, ptr, i16, i16, ptr, i16, ptr, ptr, ptr, i32, ptr, i16, i16, ptr, ptr, ptr, ptr, ptr, ptr, ptr, ptr, i16, i32, i16, ptr, ptr, ptr, ptr, i32, ptr, ptr, ptr, i16, ptr, ptr, ptr, i16, ptr, i16, ptr, i16, i16, ptr }
%union.pthread_mutex_t = type { %struct.__pthread_mutex_s }
%struct.__pthread_mutex_s = type { i32, i32, i32, i32, i32, i16, i16, %struct.__pthread_internal_list }
%struct.__pthread_internal_list = type { ptr, ptr }
%struct.slurmdbd_conn_t = type { ptr, ptr, %union.pthread_mutex_t, ptr, ptr }
%struct.persist_conn_t = type { ptr, i32, i32, i8, ptr, ptr, ptr, i64, i16, i32, i16, i8, i32, i32, ptr, i16, ptr, i64, i32, ptr, %struct.slurm_trigger_callbacks_t, i16 }
%struct.slurm_trigger_callbacks_t = type { ptr, ptr, ptr, ptr, ptr }
%struct.persist_msg_t = type { ptr, ptr, i16 }
%struct.job_record = type { i32, ptr, ptr, ptr, ptr, i16, i32, i32, i32, ptr, i32, ptr, ptr, i16, ptr, double, i64, ptr, ptr, ptr, ptr, ptr, ptr, i32, ptr, i32, i64, i64, i32, i32, ptr, i16, i64, i64, i8, i32, ptr, ptr, ptr, ptr, ptr, ptr, ptr, ptr, i32, ptr, ptr, i32, ptr, i32, ptr, i32, ptr, i32, ptr, ptr, ptr, ptr, ptr, ptr, i32, i16, i64, ptr, ptr, ptr, ptr, %struct.acct_policy_limit_set_t, i16, ptr, ptr, ptr, ptr, ptr, i32, ptr, ptr, ptr, ptr, ptr, i32, i32, ptr, ptr, ptr, i16, ptr, ptr, i8, ptr, ptr, i64, i64, i8, i32, i32, i8, i32, ptr, i32, i64, i32, ptr, ptr, ptr, i8, i16, i64, i32, ptr, ptr, ptr, ptr, ptr, i16, i32, ptr, ptr, ptr, ptr, i32, ptr, i32, i16, i64, ptr, i32, i32, ptr, i64, ptr, ptr, i64, i32, i32, i64, i32, i32, ptr, ptr, ptr, ptr, ptr, ptr, ptr, ptr, ptr, ptr, ptr, ptr, i32, ptr, i16, i16, i16, i16, ptr, i32, i32, i8, i64 }
%struct.acct_policy_limit_set_t = type { i16, i16, ptr }
%struct.job_details_t = type { i32, ptr, i64, ptr, i32, ptr, i64, ptr, i16, i16, ptr, i16, i32, i32, i32, i16, ptr, i16, ptr, ptr, ptr, i16, ptr, ptr, ptr, ptr, i32, ptr, ptr, ptr, ptr, ptr, i32, i32, i32, ptr, ptr, i16, i32, i32, i32, i32, i32, i32, i16, i16, i32, i8, i8, i32, i32, i64, i64, i16, i32, ptr, ptr, i8, ptr, i32, ptr, i64, ptr, ptr, i16, i16, i16, i8, ptr, ptr, ptr, ptr, ptr, ptr, i64, i32, i32, i8, ptr, i16, ptr, ptr, i16 }
%struct.dbd_job_comp_msg = type { ptr, i32, ptr, i64, i32, i64, ptr, i32, ptr, i32, i32, ptr, i32, i64, i64, ptr, ptr }

@slurm_conf = external global %struct.slurm_conf_t, align 8
@.str.85 = private unnamed_addr constant [42 x i8] c"DBD_JOB_COMPLETE message from invalid uid\00", align 1
@.str.86 = private unnamed_addr constant [14 x i8] c"CONN:%d %s %u\00", align 1
@.str.87 = private unnamed_addr constant [31 x i8] c"DBD_JOB_COMPLETE: RESIZE ID:%u\00", align 1
@.str.88 = private unnamed_addr constant [24 x i8] c"DBD_JOB_COMPLETE: ID:%u\00", align 1
@.str.89 = private unnamed_addr constant [41 x i8] c"DBD_JOB_COMPLETE: cluster not registered\00", align 1

; Function Attrs: nounwind uwtable
define internal zeroext i1 @_validate_slurm_user(ptr noundef %0) #0 {
  %2 = alloca i1, align 1
  %3 = alloca ptr, align 8
  %4 = alloca i32, align 4
  %5 = alloca i32, align 4
  store ptr %0, ptr %3, align 8
  call void @llvm.lifetime.start.p0(i64 4, ptr %4) #8
  %6 = load ptr, ptr %3, align 8
  %7 = getelementptr inbounds nuw %struct.slurmdbd_conn_t, ptr %6, i32 0, i32 0
  %8 = load ptr, ptr %7, align 8
  %9 = getelementptr inbounds nuw %struct.persist_conn_t, ptr %8, i32 0, i32 1
  %10 = load i32, ptr %9, align 8
  store i32 %10, ptr %4, align 4
  %11 = load i32, ptr %4, align 4
  %12 = icmp eq i32 %11, 0
  br i1 %12, label %17, label %13

13:                                               ; preds = %1
  %14 = load i32, ptr %4, align 4
  %15 = load i32, ptr getelementptr inbounds nuw (%struct.slurm_conf_t, ptr @slurm_conf, i32 0, i32 173), align 8
  %16 = icmp eq i32 %14, %15
  br i1 %16, label %17, label %18

17:                                               ; preds = %13, %1
  store i1 true, ptr %2, align 1
  store i32 1, ptr %5, align 4
  br label %19

18:                                               ; preds = %13
  store i1 false, ptr %2, align 1
  store i32 1, ptr %5, align 4
  br label %19

19:                                               ; preds = %18, %17
  call void @llvm.lifetime.end.p0(i64 4, ptr %4) #8
  %20 = load i1, ptr %2, align 1
  ret i1 %20
}

; Function Attrs: nounwind uwtable
define internal i32 @_job_complete(ptr noundef %0, ptr noundef %1, ptr noundef %2) #0 {
  %4 = alloca ptr, align 8
  %5 = alloca ptr, align 8
  %6 = alloca ptr, align 8
  %7 = alloca ptr, align 8
  %8 = alloca %struct.job_record, align 8
  %9 = alloca %struct.job_details_t, align 8
  %10 = alloca i32, align 4
  %11 = alloca ptr, align 8
  store ptr %0, ptr %4, align 8
  store ptr %1, ptr %5, align 8
  store ptr %2, ptr %6, align 8
  call void @llvm.lifetime.start.p0(i64 8, ptr %7) #8
  %12 = load ptr, ptr %5, align 8
  %13 = getelementptr inbounds nuw %struct.persist_msg_t, ptr %12, i32 0, i32 1
  %14 = load ptr, ptr %13, align 8
  store ptr %14, ptr %7, align 8
  call void @llvm.lifetime.start.p0(i64 1152, ptr %8) #8
  call void @llvm.lifetime.start.p0(i64 528, ptr %9) #8
  call void @llvm.lifetime.start.p0(i64 4, ptr %10) #8
  store i32 0, ptr %10, align 4
  call void @llvm.lifetime.start.p0(i64 8, ptr %11) #8
  store ptr null, ptr %11, align 8
  %15 = load ptr, ptr %4, align 8
  %16 = call zeroext i1 @_validate_slurm_user(ptr noundef %15)
  br i1 %16, label %30, label %17

17:                                               ; preds = %3
  store ptr @.str.85, ptr %11, align 8
  %18 = load ptr, ptr %4, align 8
  %19 = getelementptr inbounds nuw %struct.slurmdbd_conn_t, ptr %18, i32 0, i32 0
  %20 = load ptr, ptr %19, align 8
  %21 = getelementptr inbounds nuw %struct.persist_conn_t, ptr %20, i32 0, i32 9
  %22 = load i32, ptr %21, align 4
  %23 = load ptr, ptr %11, align 8
  %24 = load ptr, ptr %4, align 8
  %25 = getelementptr inbounds nuw %struct.slurmdbd_conn_t, ptr %24, i32 0, i32 0
  %26 = load ptr, ptr %25, align 8
  %27 = getelementptr inbounds nuw %struct.persist_conn_t, ptr %26, i32 0, i32 1
  %28 = load i32, ptr %27, align 8
  %29 = call i32 (ptr, ...) @error(ptr noundef @.str.86, i32 noundef %22, ptr noundef %23, i32 noundef %28)
  store i32 2002, ptr %10, align 4
  br label %196

30:                                               ; preds = %3
  call void @llvm.memset.p0.i64(ptr align 8 %8, i8 0, i64 1152, i1 false)
  call void @llvm.memset.p0.i64(ptr align 8 %9, i8 0, i64 528, i1 false)
  %31 = load ptr, ptr %7, align 8
  %32 = getelementptr inbounds nuw %struct.dbd_job_comp_msg, ptr %31, i32 0, i32 0
  %33 = load ptr, ptr %32, align 8
  %34 = getelementptr inbounds nuw %struct.job_record, ptr %8, i32 0, i32 2
  store ptr %33, ptr %34, align 8
  %35 = load ptr, ptr %7, align 8
  %36 = getelementptr inbounds nuw %struct.dbd_job_comp_msg, ptr %35, i32 0, i32 1
  %37 = load i32, ptr %36, align 8
  %38 = getelementptr inbounds nuw %struct.job_record, ptr %8, i32 0, i32 10
  store i32 %37, ptr %38, align 8
  %39 = load ptr, ptr %7, align 8
  %40 = getelementptr inbounds nuw %struct.dbd_job_comp_msg, ptr %39, i32 0, i32 2
  %41 = load ptr, ptr %40, align 8
  %42 = getelementptr inbounds nuw %struct.job_record, ptr %8, i32 0, i32 20
  store ptr %41, ptr %42, align 8
  %43 = load ptr, ptr %7, align 8
  %44 = getelementptr inbounds nuw %struct.dbd_job_comp_msg, ptr %43, i32 0, i32 3
  %45 = load i64, ptr %44, align 8
  %46 = icmp ne i64 %45, -2
  br i1 %46, label %47, label %52

47:                                               ; preds = %30
  %48 = load ptr, ptr %7, align 8
  %49 = getelementptr inbounds nuw %struct.dbd_job_comp_msg, ptr %48, i32 0, i32 3
  %50 = load i64, ptr %49, align 8
  %51 = getelementptr inbounds nuw %struct.job_record, ptr %8, i32 0, i32 26
  store i64 %50, ptr %51, align 8
  br label %52

52:                                               ; preds = %47, %30
  %53 = load ptr, ptr %7, align 8
  %54 = getelementptr inbounds nuw %struct.dbd_job_comp_msg, ptr %53, i32 0, i32 4
  %55 = load i32, ptr %54, align 8
  %56 = getelementptr inbounds nuw %struct.job_record, ptr %8, i32 0, i32 29
  store i32 %55, ptr %56, align 4
  %57 = load ptr, ptr %7, align 8
  %58 = getelementptr inbounds nuw %struct.dbd_job_comp_msg, ptr %57, i32 0, i32 5
  %59 = load i64, ptr %58, align 8
  %60 = getelementptr inbounds nuw %struct.job_record, ptr %8, i32 0, i32 32
  store i64 %59, ptr %60, align 8
  %61 = load ptr, ptr %7, align 8
  %62 = getelementptr inbounds nuw %struct.dbd_job_comp_msg, ptr %61, i32 0, i32 7
  %63 = load i32, ptr %62, align 8
  %64 = getelementptr inbounds nuw %struct.job_record, ptr %8, i32 0, i32 35
  store i32 %63, ptr %64, align 4
  %65 = load ptr, ptr %7, align 8
  %66 = getelementptr inbounds nuw %struct.dbd_job_comp_msg, ptr %65, i32 0, i32 8
  %67 = load ptr, ptr %66, align 8
  %68 = getelementptr inbounds nuw %struct.job_record, ptr %8, i32 0, i32 36
  store ptr %67, ptr %68, align 8
  %69 = load ptr, ptr %7, align 8
  %70 = getelementptr inbounds nuw %struct.dbd_job_comp_msg, ptr %69, i32 0, i32 6
  %71 = load ptr, ptr %70, align 8
  %72 = getelementptr inbounds nuw %struct.job_record, ptr %8, i32 0, i32 38
  store ptr %71, ptr %72, align 8
  %73 = load ptr, ptr %7, align 8
  %74 = getelementptr inbounds nuw %struct.dbd_job_comp_msg, ptr %73, i32 0, i32 9
  %75 = load i32, ptr %74, align 8
  %76 = getelementptr inbounds nuw %struct.job_record, ptr %8, i32 0, i32 53
  store i32 %75, ptr %76, align 8
  %77 = load ptr, ptr %7, align 8
  %78 = getelementptr inbounds nuw %struct.dbd_job_comp_msg, ptr %77, i32 0, i32 10
  %79 = load i32, ptr %78, align 4
  %80 = getelementptr inbounds nuw %struct.job_record, ptr %8, i32 0, i32 60
  store i32 %79, ptr %80, align 8
  %81 = load ptr, ptr %7, align 8
  %82 = getelementptr inbounds nuw %struct.dbd_job_comp_msg, ptr %81, i32 0, i32 12
  %83 = load i32, ptr %82, align 8
  %84 = getelementptr inbounds nuw %struct.job_record, ptr %8, i32 0, i32 115
  store i32 %83, ptr %84, align 4
  %85 = load ptr, ptr %7, align 8
  %86 = getelementptr inbounds nuw %struct.dbd_job_comp_msg, ptr %85, i32 0, i32 11
  %87 = load ptr, ptr %86, align 8
  %88 = getelementptr inbounds nuw %struct.job_record, ptr %8, i32 0, i32 75
  store ptr %87, ptr %88, align 8
  %89 = load ptr, ptr %7, align 8
  %90 = getelementptr inbounds nuw %struct.dbd_job_comp_msg, ptr %89, i32 0, i32 13
  %91 = load i64, ptr %90, align 8
  %92 = getelementptr inbounds nuw %struct.job_record, ptr %8, i32 0, i32 124
  store i64 %91, ptr %92, align 8
  %93 = load ptr, ptr %7, align 8
  %94 = getelementptr inbounds nuw %struct.dbd_job_comp_msg, ptr %93, i32 0, i32 14
  %95 = load i64, ptr %94, align 8
  %96 = getelementptr inbounds nuw %struct.job_details_t, ptr %9, i32 0, i32 74
  store i64 %95, ptr %96, align 8
  %97 = load ptr, ptr %4, align 8
  %98 = getelementptr inbounds nuw %struct.slurmdbd_conn_t, ptr %97, i32 0, i32 0
  %99 = load ptr, ptr %98, align 8
  %100 = getelementptr inbounds nuw %struct.persist_conn_t, ptr %99, i32 0, i32 21
  %101 = load i16, ptr %100, align 8
  %102 = getelementptr inbounds nuw %struct.job_record, ptr %8, i32 0, i32 123
  store i16 %101, ptr %102, align 4
  %103 = load ptr, ptr %7, align 8
  %104 = getelementptr inbounds nuw %struct.dbd_job_comp_msg, ptr %103, i32 0, i32 15
  %105 = load ptr, ptr %104, align 8
  %106 = getelementptr inbounds nuw %struct.job_record, ptr %8, i32 0, i32 131
  store ptr %105, ptr %106, align 8
  %107 = load ptr, ptr %7, align 8
  %108 = getelementptr inbounds nuw %struct.dbd_job_comp_msg, ptr %107, i32 0, i32 16
  %109 = load ptr, ptr %108, align 8
  %110 = getelementptr inbounds nuw %struct.job_record, ptr %8, i32 0, i32 148
  store ptr %109, ptr %110, align 8
  %111 = getelementptr inbounds nuw %struct.job_record, ptr %8, i32 0, i32 30
  store ptr %9, ptr %111, align 8
  %112 = getelementptr inbounds nuw %struct.job_record, ptr %8, i32 0, i32 60
  %113 = load i32, ptr %112, align 8
  %114 = zext i32 %113 to i64
  %115 = and i64 %114, 8192
  %116 = icmp ne i64 %115, 0
  br i1 %116, label %117, label %135

117:                                              ; preds = %52
  %118 = load ptr, ptr %7, align 8
  %119 = getelementptr inbounds nuw %struct.dbd_job_comp_msg, ptr %118, i32 0, i32 5
  %120 = load i64, ptr %119, align 8
  %121 = getelementptr inbounds nuw %struct.job_record, ptr %8, i32 0, i32 107
  store i64 %120, ptr %121, align 8
  br label %122

122:                                              ; preds = %117
  br label %123

123:                                              ; preds = %122
  %124 = call i32 @get_log_level()
  %125 = icmp sge i32 %124, 6
  br i1 %125, label %126, label %130

126:                                              ; preds = %123
  %127 = load ptr, ptr %7, align 8
  %128 = getelementptr inbounds nuw %struct.dbd_job_comp_msg, ptr %127, i32 0, i32 9
  %129 = load i32, ptr %128, align 8
  call void (i32, ptr, ...) @log_var(i32 noundef 6, ptr noundef @.str.87, i32 noundef %129)
  br label %130

130:                                              ; preds = %126, %123
  br label %131

131:                                              ; preds = %130
  br label %132

132:                                              ; preds = %131
  br label %133

133:                                              ; preds = %132
  br label %134

134:                                              ; preds = %133
  br label %149

135:                                              ; preds = %52
  br label %136

136:                                              ; preds = %135
  br label %137

137:                                              ; preds = %136
  %138 = call i32 @get_log_level()
  %139 = icmp sge i32 %138, 6
  br i1 %139, label %140, label %144

140:                                              ; preds = %137
  %141 = load ptr, ptr %7, align 8
  %142 = getelementptr inbounds nuw %struct.dbd_job_comp_msg, ptr %141, i32 0, i32 9
  %143 = load i32, ptr %142, align 8
  call void (i32, ptr, ...) @log_var(i32 noundef 6, ptr noundef @.str.88, i32 noundef %143)
  br label %144

144:                                              ; preds = %140, %137
  br label %145

145:                                              ; preds = %144
  br label %146

146:                                              ; preds = %145
  br label %147

147:                                              ; preds = %146
  br label %148

148:                                              ; preds = %147
  br label %149

149:                                              ; preds = %148, %134
  %150 = load ptr, ptr %4, align 8
  %151 = getelementptr inbounds nuw %struct.slurmdbd_conn_t, ptr %150, i32 0, i32 3
  %152 = load ptr, ptr %151, align 8
  %153 = call i32 @jobacct_storage_g_job_complete(ptr noundef %152, ptr noundef %8)
  store i32 %153, ptr %10, align 4
  %154 = load i32, ptr %10, align 4
  %155 = icmp ne i32 %154, 0
  br i1 %155, label %156, label %161

156:                                              ; preds = %149
  %157 = call ptr @__errno_location() #10
  %158 = load i32, ptr %157, align 4
  %159 = icmp eq i32 %158, 740
  br i1 %159, label %160, label %161

160:                                              ; preds = %156
  store i32 0, ptr %10, align 4
  br label %161

161:                                              ; preds = %160, %156, %149
  %162 = getelementptr inbounds nuw %struct.job_record, ptr %8, i32 0, i32 156
  call void @slurm_xfree(ptr noundef %162)
  %163 = load ptr, ptr %4, align 8
  %164 = getelementptr inbounds nuw %struct.slurmdbd_conn_t, ptr %163, i32 0, i32 0
  %165 = load ptr, ptr %164, align 8
  %166 = getelementptr inbounds nuw %struct.persist_conn_t, ptr %165, i32 0, i32 15
  %167 = load i16, ptr %166, align 8
  %168 = icmp ne i16 %167, 0
  br i1 %168, label %195, label %169

169:                                              ; preds = %161
  br label %170

170:                                              ; preds = %169
  br label %171

171:                                              ; preds = %170
  %172 = call i32 @get_log_level()
  %173 = icmp sge i32 %172, 7
  br i1 %173, label %174, label %175

174:                                              ; preds = %171
  call void (i32, ptr, ...) @log_var(i32 noundef 7, ptr noundef @.str.89)
  br label %175

175:                                              ; preds = %174, %171
  br label %176

176:                                              ; preds = %175
  br label %177

177:                                              ; preds = %176
  br label %178

178:                                              ; preds = %177
  br label %179

179:                                              ; preds = %178
  %180 = load ptr, ptr %4, align 8
  %181 = getelementptr inbounds nuw %struct.slurmdbd_conn_t, ptr %180, i32 0, i32 3
  %182 = load ptr, ptr %181, align 8
  %183 = load ptr, ptr %4, align 8
  %184 = getelementptr inbounds nuw %struct.slurmdbd_conn_t, ptr %183, i32 0, i32 0
  %185 = load ptr, ptr %184, align 8
  %186 = getelementptr inbounds nuw %struct.persist_conn_t, ptr %185, i32 0, i32 14
  %187 = load ptr, ptr %186, align 8
  %188 = call i32 @clusteracct_storage_g_register_disconn_ctld(ptr noundef %182, ptr noundef %187)
  %189 = trunc i32 %188 to i16
  %190 = load ptr, ptr %4, align 8
  %191 = getelementptr inbounds nuw %struct.slurmdbd_conn_t, ptr %190, i32 0, i32 0
  %192 = load ptr, ptr %191, align 8
  %193 = getelementptr inbounds nuw %struct.persist_conn_t, ptr %192, i32 0, i32 15
  store i16 %189, ptr %193, align 8
  %194 = load ptr, ptr %4, align 8
  call void @_add_registered_cluster(ptr noundef %194)
  br label %195

195:                                              ; preds = %179, %161
  br label %196

196:                                              ; preds = %195, %17
  %197 = load ptr, ptr %4, align 8
  %198 = getelementptr inbounds nuw %struct.slurmdbd_conn_t, ptr %197, i32 0, i32 0
  %199 = load ptr, ptr %198, align 8
  %200 = load i32, ptr %10, align 4
  %201 = load ptr, ptr %11, align 8
  %202 = call ptr @slurm_persist_make_rc_msg(ptr noundef %199, i32 noundef %200, ptr noundef %201, i16 noundef zeroext 1424)
  %203 = load ptr, ptr %6, align 8
  store ptr %202, ptr %203, align 8
  call void @llvm.lifetime.end.p0(i64 8, ptr %11) #8
  call void @llvm.lifetime.end.p0(i64 4, ptr %10) #8
  call void @llvm.lifetime.end.p0(i64 528, ptr %9) #8
  call void @llvm.lifetime.end.p0(i64 1152, ptr %8) #8
  call void @llvm.lifetime.end.p0(i64 8, ptr %7) #8
  ret i32 0
}