; Function Attrs: nounwind uwtable
define internal fastcc void @_job_complete(ptr noundef %0, ptr readonly captures(none) %.8.val, ptr noundef writeonly captures(none) initializes((0, 8)) %1) unnamed_addr #0 {
  %3 = alloca %struct.job_record, align 8
  %4 = alloca %struct.job_details_t, align 8
  call void @llvm.lifetime.start.p0(i64 1152, ptr nonnull %3) #10
  call void @llvm.lifetime.start.p0(i64 528, ptr nonnull %4) #10
  %.val = load ptr, ptr %0, align 8
  %5 = getelementptr i8, ptr %.val, i64 8
  %.val.val = load i32, ptr %5, align 8
  %6 = icmp eq i32 %.val.val, 0
  %7 = load i32, ptr getelementptr inbounds nuw (i8, ptr @slurm_conf, i64 1152), align 8
  %8 = icmp eq i32 %.val.val, %7
  %or.cond.i = select i1 %6, i1 true, i1 %8
  br i1 %or.cond.i, label %13, label %9

9:                                                ; preds = %2
  %10 = getelementptr inbounds nuw i8, ptr %.val, i64 60
  %11 = load i32, ptr %10, align 4
  %12 = tail call i32 (ptr, ...) @error(ptr noundef nonnull @.str.86, i32 noundef %11, ptr noundef nonnull @.str.85, i32 noundef %.val.val) #10
  br label %105

13:                                               ; preds = %2
  call void @llvm.memset.p0.i64(ptr noundef nonnull align 8 dereferenceable(1152) %3, i8 0, i64 1152, i1 false)
  call void @llvm.memset.p0.i64(ptr noundef nonnull align 8 dereferenceable(528) %4, i8 0, i64 528, i1 false)
  %14 = load ptr, ptr %.8.val, align 8
  %15 = getelementptr inbounds nuw i8, ptr %3, i64 16
  store ptr %14, ptr %15, align 8
  %16 = getelementptr inbounds nuw i8, ptr %.8.val, i64 8
  %17 = load i32, ptr %16, align 8
  %18 = getelementptr inbounds nuw i8, ptr %3, i64 64
  store i32 %17, ptr %18, align 8
  %19 = getelementptr inbounds nuw i8, ptr %.8.val, i64 16
  %20 = load ptr, ptr %19, align 8
  %21 = getelementptr inbounds nuw i8, ptr %3, i64 144
  store ptr %20, ptr %21, align 8
  %22 = getelementptr inbounds nuw i8, ptr %.8.val, i64 24
  %23 = load i64, ptr %22, align 8
  %.not = icmp eq i64 %23, -2
  br i1 %.not, label %26, label %24

24:                                               ; preds = %13
  %25 = getelementptr inbounds nuw i8, ptr %3, i64 192
  store i64 %23, ptr %25, align 8
  br label %26

26:                                               ; preds = %24, %13
  %27 = getelementptr inbounds nuw i8, ptr %.8.val, i64 32
  %28 = load i32, ptr %27, align 8
  %29 = getelementptr inbounds nuw i8, ptr %3, i64 212
  store i32 %28, ptr %29, align 4
  %30 = getelementptr inbounds nuw i8, ptr %.8.val, i64 40
  %31 = load i64, ptr %30, align 8
  %32 = getelementptr inbounds nuw i8, ptr %3, i64 232
  store i64 %31, ptr %32, align 8
  %33 = getelementptr inbounds nuw i8, ptr %.8.val, i64 56
  %34 = load i32, ptr %33, align 8
  %35 = getelementptr inbounds nuw i8, ptr %3, i64 252
  store i32 %34, ptr %35, align 4
  %36 = getelementptr inbounds nuw i8, ptr %.8.val, i64 64
  %37 = load ptr, ptr %36, align 8
  %38 = getelementptr inbounds nuw i8, ptr %3, i64 256
  store ptr %37, ptr %38, align 8
  %39 = getelementptr inbounds nuw i8, ptr %.8.val, i64 48
  %40 = load ptr, ptr %39, align 8
  %41 = getelementptr inbounds nuw i8, ptr %3, i64 272
  store ptr %40, ptr %41, align 8
  %42 = getelementptr inbounds nuw i8, ptr %.8.val, i64 72
  %43 = load i32, ptr %42, align 8
  %44 = getelementptr inbounds nuw i8, ptr %3, i64 392
  store i32 %43, ptr %44, align 8
  %45 = getelementptr inbounds nuw i8, ptr %.8.val, i64 76
  %46 = load i32, ptr %45, align 4
  %47 = getelementptr inbounds nuw i8, ptr %3, i64 448
  store i32 %46, ptr %47, align 8
  %48 = getelementptr inbounds nuw i8, ptr %.8.val, i64 88
  %49 = load i32, ptr %48, align 8
  %50 = getelementptr inbounds nuw i8, ptr %3, i64 852
  store i32 %49, ptr %50, align 4
  %51 = getelementptr inbounds nuw i8, ptr %.8.val, i64 80
  %52 = load ptr, ptr %51, align 8
  %53 = getelementptr inbounds nuw i8, ptr %3, i64 568
  store ptr %52, ptr %53, align 8
  %54 = getelementptr inbounds nuw i8, ptr %.8.val, i64 96
  %55 = load i64, ptr %54, align 8
  %56 = getelementptr inbounds nuw i8, ptr %3, i64 912
  store i64 %55, ptr %56, align 8
  %57 = getelementptr inbounds nuw i8, ptr %.8.val, i64 104
  %58 = load i64, ptr %57, align 8
  %59 = getelementptr inbounds nuw i8, ptr %4, i64 464
  store i64 %58, ptr %59, align 8
  %60 = getelementptr inbounds nuw i8, ptr %.val, i64 168
  %61 = load i16, ptr %60, align 8
  %62 = getelementptr inbounds nuw i8, ptr %3, i64 908
  store i16 %61, ptr %62, align 4
  %63 = getelementptr inbounds nuw i8, ptr %.8.val, i64 112
  %64 = load ptr, ptr %63, align 8
  %65 = getelementptr inbounds nuw i8, ptr %3, i64 960
  store ptr %64, ptr %65, align 8
  %66 = getelementptr inbounds nuw i8, ptr %.8.val, i64 120
  %67 = load ptr, ptr %66, align 8
  %68 = getelementptr inbounds nuw i8, ptr %3, i64 1080
  store ptr %67, ptr %68, align 8
  %69 = getelementptr inbounds nuw i8, ptr %3, i64 216
  store ptr %4, ptr %69, align 8
  %70 = and i32 %46, 8192
  %.not41 = icmp eq i32 %70, 0
  br i1 %.not41, label %75, label %71

71:                                               ; preds = %26
  %72 = getelementptr inbounds nuw i8, ptr %3, i64 792
  store i64 %31, ptr %72, align 8
  %73 = call i32 @get_log_level() #10
  %74 = icmp sgt i32 %73, 5
  br i1 %74, label %.sink.split, label %79

75:                                               ; preds = %26
  %76 = call i32 @get_log_level() #10
  %77 = icmp sgt i32 %76, 5
  br i1 %77, label %.sink.split, label %79

.sink.split:                                      ; preds = %75, %71
  %.str.88.sink = phi ptr [ @.str.87, %71 ], [ @.str.88, %75 ]
  %78 = load i32, ptr %42, align 8
  call void (i32, ptr, ...) @log_var(i32 noundef 6, ptr noundef nonnull %.str.88.sink, i32 noundef %78) #10
  br label %79

79:                                               ; preds = %.sink.split, %75, %71
  %80 = getelementptr inbounds nuw i8, ptr %0, i64 56
  %81 = load ptr, ptr %80, align 8
  %82 = call i32 @jobacct_storage_g_job_complete(ptr noundef %81, ptr noundef nonnull %3) #10
  %.not42 = icmp eq i32 %82, 0
  br i1 %.not42, label %87, label %83

83:                                               ; preds = %79
  %84 = tail call ptr @__errno_location() #12
  %85 = load i32, ptr %84, align 4
  %86 = icmp eq i32 %85, 740
  %spec.select = select i1 %86, i32 0, i32 %82
  br label %87

87:                                               ; preds = %83, %79
  %.1 = phi i32 [ 0, %79 ], [ %spec.select, %83 ]
  %88 = getelementptr inbounds nuw i8, ptr %3, i64 1120
  call void @slurm_xfree(ptr noundef nonnull %88) #10
  %89 = load ptr, ptr %0, align 8
  %90 = getelementptr inbounds nuw i8, ptr %89, i64 88
  %91 = load i16, ptr %90, align 8
  %.not43 = icmp eq i16 %91, 0
  br i1 %.not43, label %92, label %105

92:                                               ; preds = %87
  %93 = call i32 @get_log_level() #10
  %94 = icmp sgt i32 %93, 6
  br i1 %94, label %95, label %96

95:                                               ; preds = %92
  call void (i32, ptr, ...) @log_var(i32 noundef 7, ptr noundef nonnull @.str.89) #10
  br label %96

96:                                               ; preds = %95, %92
  %97 = load ptr, ptr %80, align 8
  %98 = load ptr, ptr %0, align 8
  %99 = getelementptr inbounds nuw i8, ptr %98, i64 80
  %100 = load ptr, ptr %99, align 8
  %101 = call i32 @clusteracct_storage_g_register_disconn_ctld(ptr noundef %97, ptr noundef %100) #10
  %102 = trunc i32 %101 to i16
  %103 = load ptr, ptr %0, align 8
  %104 = getelementptr inbounds nuw i8, ptr %103, i64 88
  store i16 %102, ptr %104, align 8
  call fastcc void @_add_registered_cluster(ptr noundef nonnull %0)
  br label %105

105:                                              ; preds = %87, %96, %9
  %.037 = phi i32 [ %.1, %87 ], [ %.1, %96 ], [ 2002, %9 ]
  %.0 = phi ptr [ null, %87 ], [ null, %96 ], [ @.str.85, %9 ]
  %106 = load ptr, ptr %0, align 8
  %107 = call ptr @slurm_persist_make_rc_msg(ptr noundef %106, i32 noundef %.037, ptr noundef %.0, i16 noundef zeroext 1424) #10
  store ptr %107, ptr %1, align 8
  call void @llvm.lifetime.end.p0(i64 528, ptr nonnull %4) #10
  call void @llvm.lifetime.end.p0(i64 1152, ptr nonnull %3) #10
  ret void
}